target datalayout = "e-m:e-p270:32:32-p271:32:32-p272:64:64-i64:64-i128:128-f80:128-n8:16:32:64-S128"
target triple = "x86_64-pc-linux-gnu"

%"class.std::__cxx11::basic_string" = type { %"struct.std::__cxx11::basic_string<char>::_Alloc_hider", i64, %union.anon.1 }
%"struct.std::__cxx11::basic_string<char>::_Alloc_hider" = type { ptr }
%union.anon.1 = type { i64, [8 x i8] }
%"struct.vcpkg::Path" = type { %"class.std::__cxx11::basic_string" }
%"struct.vcpkg::Version" = type <{ %"class.std::__cxx11::basic_string", i32, [4 x i8] }>
%"struct.(anonymous namespace)::BuiltinPortTreeRegistryEntry" = type { %"struct.vcpkg::RegistryEntry", %"class.std::__cxx11::basic_string", %"struct.vcpkg::Path", %"struct.vcpkg::Version" }
%"struct.vcpkg::RegistryEntry" = type { ptr }

; Function Attrs: mustprogress nounwind uwtable
define linkonce_odr dso_local void @_ZN5vcpkg13RegistryEntryD2Ev(ptr noundef nonnull align 8 dereferenceable(8) %0) unnamed_addr #1 comdat align 2 {
  %2 = alloca ptr, align 8
  store ptr %0, ptr %2, align 8
  ret void
}

; Function Attrs: mustprogress nounwind uwtable
define linkonce_odr dso_local void @_ZN5vcpkg4PathD2Ev(ptr noundef nonnull align 8 dereferenceable(32) %0) unnamed_addr #1 comdat align 2 {
  %2 = alloca ptr, align 8
  store ptr %0, ptr %2, align 8
  %3 = load ptr, ptr %2, align 8
  %4 = getelementptr inbounds %"struct.vcpkg::Path", ptr %3, i32 0, i32 0
  call void @_ZNSt7__cxx1112basic_stringIcSt11char_traitsIcESaIcEED1Ev(ptr noundef nonnull align 8 dereferenceable(32) %4) #2
  ret void
}

; Function Attrs: mustprogress nounwind uwtable
define linkonce_odr dso_local void @_ZN5vcpkg7VersionD2Ev(ptr noundef nonnull align 8 dereferenceable(36) %0) unnamed_addr #1 comdat align 2 {
  %2 = alloca ptr, align 8
  store ptr %0, ptr %2, align 8
  %3 = load ptr, ptr %2, align 8
  %4 = getelementptr inbounds %"struct.vcpkg::Version", ptr %3, i32 0, i32 0
  call void @_ZNSt7__cxx1112basic_stringIcSt11char_traitsIcESaIcEED1Ev(ptr noundef nonnull align 8 dereferenceable(32) %4) #2
  ret void
}

; Function Attrs: mustprogress nounwind uwtable
define internal void @_ZN12_GLOBAL__N_128BuiltinPortTreeRegistryEntryD2Ev(ptr noundef nonnull align 8 dereferenceable(112) %0) unnamed_addr #1 align 2 {
  %2 = alloca ptr, align 8
  store ptr %0, ptr %2, align 8
  %3 = load ptr, ptr %2, align 8
  %4 = getelementptr inbounds %"struct.(anonymous namespace)::BuiltinPortTreeRegistryEntry", ptr %3, i32 0, i32 3
  call void @_ZN5vcpkg7VersionD2Ev(ptr noundef nonnull align 8 dereferenceable(36) %4) #2
  %5 = getelementptr inbounds %"struct.(anonymous namespace)::BuiltinPortTreeRegistryEntry", ptr %3, i32 0, i32 2
  call void @_ZN5vcpkg4PathD2Ev(ptr noundef nonnull align 8 dereferenceable(32) %5) #2
  %6 = getelementptr inbounds %"struct.(anonymous namespace)::BuiltinPortTreeRegistryEntry", ptr %3, i32 0, i32 1
  call void @_ZNSt7__cxx1112basic_stringIcSt11char_traitsIcESaIcEED1Ev(ptr noundef nonnull align 8 dereferenceable(32) %6) #2
  call void @_ZN5vcpkg13RegistryEntryD2Ev(ptr noundef nonnull align 8 dereferenceable(8) %3) #2
  ret void
}

; Function Attrs: mustprogress nounwind uwtable
define internal void @_ZN12_GLOBAL__N_128BuiltinPortTreeRegistryEntryD0Ev(ptr noundef nonnull align 8 dereferenceable(112) %0) unnamed_addr #1 align 2 {
  %2 = alloca ptr, align 8
  store ptr %0, ptr %2, align 8
  %3 = load ptr, ptr %2, align 8
  call void @_ZN12_GLOBAL__N_128BuiltinPortTreeRegistryEntryD2Ev(ptr noundef nonnull align 8 dereferenceable(112) %3) #2
  call void @_ZdlPv(ptr noundef %3) #21
  ret void
}