; Function Attrs: mustprogress nounwind uwtable
define internal void @_ZN12_GLOBAL__N_128BuiltinPortTreeRegistryEntryD0Ev(ptr noundef nonnull align 8 dereferenceable(112) %0) unnamed_addr #6 align 2 {
  %2 = getelementptr inbounds i8, ptr %0, i64 72
  tail call void @_ZNSt7__cxx1112basic_stringIcSt11char_traitsIcESaIcEED1Ev(ptr noundef nonnull align 8 dereferenceable(32) %2) #26
  %3 = getelementptr inbounds i8, ptr %0, i64 40
  tail call void @_ZNSt7__cxx1112basic_stringIcSt11char_traitsIcESaIcEED1Ev(ptr noundef nonnull align 8 dereferenceable(32) %3) #26
  %4 = getelementptr inbounds i8, ptr %0, i64 8
  tail call void @_ZNSt7__cxx1112basic_stringIcSt11char_traitsIcESaIcEED1Ev(ptr noundef nonnull align 8 dereferenceable(32) %4) #26
  tail call void @_ZdlPv(ptr noundef nonnull %0) #28
  ret void
}